target datalayout = "e-m:e-p270:32:32-p271:32:32-p272:64:64-i64:64-i128:128-f80:128-n8:16:32:64-S128"
target triple = "x86_64-pc-linux-gnu"

%union.pthread_mutex_t = type { %struct.__pthread_mutex_s }
%struct.__pthread_mutex_s = type { i32, i32, i32, i32, i32, i16, i16, %struct.__pthread_internal_list }
%struct.__pthread_internal_list = type { ptr, ptr }
%union.pthread_cond_t = type { %struct.__pthread_cond_s }
%struct.__pthread_cond_s = type { %union.__atomic_wide_counter, %union.__atomic_wide_counter, [2 x i32], [2 x i32], i32, i32, [2 x i32] }
%union.__atomic_wide_counter = type { i64 }
%struct.stepd_step_rec_t = type { ptr, ptr, i32, %union.pthread_cond_t, %union.pthread_mutex_t, %struct.slurm_step_id_msg, i32, i32, i32, i32, i32, i32, ptr, ptr, i32, i32, ptr, i32, i32, i32, i32, i32, ptr, ptr, ptr, ptr, i32, i32, i64, i64, i16, i32, ptr, ptr, ptr, i32, ptr, i32, ptr, i32, ptr, i16, i32, i32, i32, ptr, i32, ptr, ptr, ptr, ptr, i32, i32, ptr, ptr, i8, i8, i8, i64, i32, ptr, ptr, ptr, ptr, ptr, ptr, ptr, ptr, ptr, ptr, i32, i32, ptr, i8, %union.pthread_cond_t, %union.pthread_mutex_t, i64, ptr, i32, i32, i32, ptr, i64, ptr, ptr, i8, ptr, i16, ptr, ptr, ptr, ptr, ptr, ptr, i64, ptr, i64, ptr, i16, i8, i16, i32, ptr, i16, ptr, ptr, i16, ptr, ptr, ptr, i8 }
%struct.slurm_step_id_msg = type { i64, i32, i32, i32 }

@.str.26 = private unnamed_addr constant [6 x i8] c"req.c\00", align 1
@.str.36 = private unnamed_addr constant [45 x i8] c"%s:%d: %s: safe_write (%zu of %d) failed: %m\00", align 1
@.str.37 = private unnamed_addr constant [48 x i8] c"%s:%d: %s: safe_write (%zu of %d) partial write\00", align 1
@.str.152 = private unnamed_addr constant [18 x i8] c"%s: for job %u:%u\00", align 1
@__func__._handle_get_ns_fd = private unnamed_addr constant [18 x i8] c"_handle_get_ns_fd\00", align 1
@.str.153 = private unnamed_addr constant [12 x i8] c"sent fd: %d\00", align 1
@.str.154 = private unnamed_addr constant [11 x i8] c"leaving %s\00", align 1

; Function Attrs: nounwind uwtable
define internal i32 @_handle_get_ns_fd(i32 noundef %0, ptr noundef %1) #0 {
  %3 = alloca i32, align 4
  %4 = alloca i32, align 4
  %5 = alloca ptr, align 8
  %6 = alloca i32, align 4
  %7 = alloca i64, align 8
  %8 = alloca ptr, align 8
  %9 = alloca i32, align 4
  %10 = alloca i32, align 4
  store i32 %0, ptr %4, align 4
  store ptr %1, ptr %5, align 8
  call void @llvm.lifetime.start.p0(i64 4, ptr %6) #10
  store i32 -1, ptr %6, align 4
  br label %11

11:                                               ; preds = %2
  br label %12

12:                                               ; preds = %11
  %13 = call i32 @get_log_level()
  %14 = icmp sge i32 %13, 5
  br i1 %14, label %15, label %24

15:                                               ; preds = %12
  %16 = load ptr, ptr %5, align 8
  %17 = getelementptr inbounds nuw %struct.stepd_step_rec_t, ptr %16, i32 0, i32 5
  %18 = getelementptr inbounds nuw %struct.slurm_step_id_msg, ptr %17, i32 0, i32 1
  %19 = load i32, ptr %18, align 8
  %20 = load ptr, ptr %5, align 8
  %21 = getelementptr inbounds nuw %struct.stepd_step_rec_t, ptr %20, i32 0, i32 5
  %22 = getelementptr inbounds nuw %struct.slurm_step_id_msg, ptr %21, i32 0, i32 3
  %23 = load i32, ptr %22, align 8
  call void (i32, ptr, ...) @log_var(i32 noundef 5, ptr noundef @.str.152, ptr noundef @__func__._handle_get_ns_fd, i32 noundef %19, i32 noundef %23)
  br label %24

24:                                               ; preds = %15, %12
  br label %25

25:                                               ; preds = %24
  br label %26

26:                                               ; preds = %25
  br label %27

27:                                               ; preds = %26
  br label %28

28:                                               ; preds = %27
  %29 = load ptr, ptr %5, align 8
  %30 = getelementptr inbounds nuw %struct.stepd_step_rec_t, ptr %29, i32 0, i32 5
  %31 = getelementptr inbounds nuw %struct.slurm_step_id_msg, ptr %30, i32 0, i32 1
  %32 = load i32, ptr %31, align 8
  %33 = call i32 @container_g_join_external(i32 noundef %32)
  store i32 %33, ptr %6, align 4
  br label %34

34:                                               ; preds = %28
  call void @llvm.lifetime.start.p0(i64 8, ptr %7) #10
  store i64 4, ptr %7, align 8
  call void @llvm.lifetime.start.p0(i64 8, ptr %8) #10
  store ptr %6, ptr %8, align 8
  call void @llvm.lifetime.start.p0(i64 4, ptr %9) #10
  br label %35

35:                                               ; preds = %91, %54, %34
  %36 = load i64, ptr %7, align 8
  %37 = icmp ugt i64 %36, 0
  br i1 %37, label %38, label %92

38:                                               ; preds = %35
  %39 = load i32, ptr %4, align 4
  %40 = load ptr, ptr %8, align 8
  %41 = load i64, ptr %7, align 8
  %42 = call i64 @write(i32 noundef %39, ptr noundef %40, i64 noundef %41)
  %43 = trunc i64 %42 to i32
  store i32 %43, ptr %9, align 4
  %44 = load i32, ptr %9, align 4
  %45 = icmp slt i32 %44, 0
  br i1 %45, label %46, label %67

46:                                               ; preds = %38
  %47 = call ptr @__errno_location() #11
  %48 = load i32, ptr %47, align 4
  %49 = icmp eq i32 %48, 11
  br i1 %49, label %54, label %50

50:                                               ; preds = %46
  %51 = call ptr @__errno_location() #11
  %52 = load i32, ptr %51, align 4
  %53 = icmp eq i32 %52, 4
  br i1 %53, label %54, label %55

54:                                               ; preds = %50, %46
  br label %35, !llvm.loop !121

55:                                               ; preds = %50
  br label %56

56:                                               ; preds = %55
  br label %57

57:                                               ; preds = %56
  %58 = call i32 @get_log_level()
  %59 = icmp sge i32 %58, 5
  br i1 %59, label %60, label %62

60:                                               ; preds = %57
  %61 = load i64, ptr %7, align 8
  call void (i32, ptr, ...) @log_var(i32 noundef 5, ptr noundef @.str.36, ptr noundef @.str.26, i32 noundef 1494, ptr noundef @__func__._handle_get_ns_fd, i64 noundef %61, i32 noundef 4)
  br label %62

62:                                               ; preds = %60, %57
  br label %63

63:                                               ; preds = %62
  br label %64

64:                                               ; preds = %63
  br label %65

65:                                               ; preds = %64
  br label %66

66:                                               ; preds = %65
  store i32 14, ptr %10, align 4
  br label %93

67:                                               ; preds = %38
  %68 = load i32, ptr %9, align 4
  %69 = load ptr, ptr %8, align 8
  %70 = sext i32 %68 to i64
  %71 = getelementptr inbounds i8, ptr %69, i64 %70
  store ptr %71, ptr %8, align 8
  %72 = load i32, ptr %9, align 4
  %73 = sext i32 %72 to i64
  %74 = load i64, ptr %7, align 8
  %75 = sub i64 %74, %73
  store i64 %75, ptr %7, align 8
  %76 = load i64, ptr %7, align 8
  %77 = icmp ugt i64 %76, 0
  br i1 %77, label %78, label %90

78:                                               ; preds = %67
  br label %79

79:                                               ; preds = %78
  br label %80

80:                                               ; preds = %79
  %81 = call i32 @get_log_level()
  %82 = icmp sge i32 %81, 7
  br i1 %82, label %83, label %85

83:                                               ; preds = %80
  %84 = load i64, ptr %7, align 8
  call void (i32, ptr, ...) @log_var(i32 noundef 7, ptr noundef @.str.37, ptr noundef @.str.26, i32 noundef 1494, ptr noundef @__func__._handle_get_ns_fd, i64 noundef %84, i32 noundef 4)
  br label %85

85:                                               ; preds = %83, %80
  br label %86

86:                                               ; preds = %85
  br label %87

87:                                               ; preds = %86
  br label %88

88:                                               ; preds = %87
  br label %89

89:                                               ; preds = %88
  br label %90

90:                                               ; preds = %89, %67
  br label %91

91:                                               ; preds = %90
  br label %35, !llvm.loop !121

92:                                               ; preds = %35
  store i32 0, ptr %10, align 4
  br label %93

93:                                               ; preds = %66, %92
  call void @llvm.lifetime.end.p0(i64 4, ptr %9) #10
  call void @llvm.lifetime.end.p0(i64 8, ptr %8) #10
  call void @llvm.lifetime.end.p0(i64 8, ptr %7) #10
  %94 = load i32, ptr %10, align 4
  switch i32 %94, label %126 [
    i32 0, label %95
    i32 14, label %125
  ]

95:                                               ; preds = %93
  br label %96

96:                                               ; preds = %95
  br label %97

97:                                               ; preds = %96
  %98 = load i32, ptr %6, align 4
  %99 = icmp sgt i32 %98, 0
  br i1 %99, label %100, label %103

100:                                              ; preds = %97
  %101 = load i32, ptr %4, align 4
  %102 = load i32, ptr %6, align 4
  call void @send_fd_over_socket(i32 noundef %101, i32 noundef %102)
  br label %103

103:                                              ; preds = %100, %97
  br label %104

104:                                              ; preds = %103
  br label %105

105:                                              ; preds = %104
  %106 = call i32 @get_log_level()
  %107 = icmp sge i32 %106, 5
  br i1 %107, label %108, label %110

108:                                              ; preds = %105
  %109 = load i32, ptr %6, align 4
  call void (i32, ptr, ...) @log_var(i32 noundef 5, ptr noundef @.str.153, i32 noundef %109)
  br label %110

110:                                              ; preds = %108, %105
  br label %111

111:                                              ; preds = %110
  br label %112

112:                                              ; preds = %111
  br label %113

113:                                              ; preds = %112
  br label %114

114:                                              ; preds = %113
  br label %115

115:                                              ; preds = %114
  br label %116

116:                                              ; preds = %115
  %117 = call i32 @get_log_level()
  %118 = icmp sge i32 %117, 5
  br i1 %118, label %119, label %120

119:                                              ; preds = %116
  call void (i32, ptr, ...) @log_var(i32 noundef 5, ptr noundef @.str.154, ptr noundef @__func__._handle_get_ns_fd)
  br label %120

120:                                              ; preds = %119, %116
  br label %121

121:                                              ; preds = %120
  br label %122

122:                                              ; preds = %121
  br label %123

123:                                              ; preds = %122
  br label %124

124:                                              ; preds = %123
  store i32 0, ptr %3, align 4
  store i32 1, ptr %10, align 4
  br label %126

125:                                              ; preds = %93
  store i32 -1, ptr %3, align 4
  store i32 1, ptr %10, align 4
  br label %126

126:                                              ; preds = %125, %124, %93
  call void @llvm.lifetime.end.p0(i64 4, ptr %6) #10
  %127 = load i32, ptr %3, align 4
  ret i32 %127
}