; Function Attrs: nounwind uwtable
define internal fastcc range(i32 -1, 1) i32 @_handle_get_ns_fd(i32 noundef %0, ptr noundef readonly captures(none) %1) unnamed_addr #0 {
  %3 = alloca i32, align 4
  call void @llvm.lifetime.start.p0(i64 4, ptr nonnull %3) #13
  %4 = tail call i32 @get_log_level() #13
  %5 = icmp sgt i32 %4, 4
  br i1 %5, label %6, label %11

6:                                                ; preds = %2
  %7 = getelementptr inbounds nuw i8, ptr %1, i64 120
  %8 = load i32, ptr %7, align 8
  %9 = getelementptr inbounds nuw i8, ptr %1, i64 128
  %10 = load i32, ptr %9, align 8
  tail call void (i32, ptr, ...) @log_var(i32 noundef 5, ptr noundef nonnull @.str.152, ptr noundef nonnull @__func__._handle_get_ns_fd, i32 noundef %8, i32 noundef %10) #13
  br label %11

11:                                               ; preds = %6, %2
  %12 = getelementptr inbounds nuw i8, ptr %1, i64 120
  %13 = load i32, ptr %12, align 8
  %14 = tail call i32 @container_g_join_external(i32 noundef %13) #13
  store i32 %14, ptr %3, align 4
  br label %.lr.ph.split

.lr.ph.split:                                     ; preds = %.lr.ph.split.backedge, %11
  %.018.ph40 = phi ptr [ %3, %11 ], [ %27, %.lr.ph.split.backedge ]
  %.019.ph38 = phi i64 [ 4, %11 ], [ %28, %.lr.ph.split.backedge ]
  %15 = call i64 @write(i32 noundef %0, ptr noundef %.018.ph40, i64 noundef %.019.ph38) #13
  %16 = and i64 %15, 2147483648
  %.not2436 = icmp eq i64 %16, 0
  br i1 %.not2436, label %.split.us, label %.lr.ph37

.lr.ph37:                                         ; preds = %.lr.ph.split
  %17 = tail call ptr @__errno_location() #14
  br label %18

18:                                               ; preds = %.lr.ph37, %20
  %19 = load i32, ptr %17, align 4
  switch i32 %19, label %.split31.us [
    i32 11, label %20
    i32 4, label %20
  ]

20:                                               ; preds = %18, %18
  %21 = call i64 @write(i32 noundef %0, ptr noundef %.018.ph40, i64 noundef %.019.ph38) #13
  %22 = and i64 %21, 2147483648
  %.not24 = icmp eq i64 %22, 0
  br i1 %.not24, label %.split.us, label %18

.split31.us:                                      ; preds = %18
  %23 = tail call i32 @get_log_level() #13
  %24 = icmp sgt i32 %23, 4
  br i1 %24, label %25, label %.thread

25:                                               ; preds = %.split31.us
  tail call void (i32, ptr, ...) @log_var(i32 noundef 5, ptr noundef nonnull @.str.36, ptr noundef nonnull @.str.26, i32 noundef 1494, ptr noundef nonnull @__func__._handle_get_ns_fd, i64 noundef %.019.ph38, i32 noundef 4) #13
  br label %.thread

.split.us:                                        ; preds = %20, %.lr.ph.split
  %.us-phi = phi i64 [ %15, %.lr.ph.split ], [ %21, %20 ]
  %26 = and i64 %.us-phi, 2147483647
  %27 = getelementptr inbounds nuw i8, ptr %.018.ph40, i64 %26
  %28 = sub i64 %.019.ph38, %26
  %.not25 = icmp eq i64 %28, 0
  br i1 %.not25, label %.outer._crit_edge, label %29

29:                                               ; preds = %.split.us
  %30 = tail call i32 @get_log_level() #13
  %31 = icmp sgt i32 %30, 6
  br i1 %31, label %32, label %.lr.ph.split.backedge

32:                                               ; preds = %29
  tail call void (i32, ptr, ...) @log_var(i32 noundef 7, ptr noundef nonnull @.str.37, ptr noundef nonnull @.str.26, i32 noundef 1494, ptr noundef nonnull @__func__._handle_get_ns_fd, i64 noundef %28, i32 noundef 4) #13
  br label %.lr.ph.split.backedge

.lr.ph.split.backedge:                            ; preds = %32, %29
  br label %.lr.ph.split, !llvm.loop !120

.outer._crit_edge:                                ; preds = %.split.us
  %33 = icmp sgt i32 %14, 0
  br i1 %33, label %34, label %35

34:                                               ; preds = %.outer._crit_edge
  tail call void @send_fd_over_socket(i32 noundef %0, i32 noundef %14) #13
  br label %35

35:                                               ; preds = %34, %.outer._crit_edge
  %36 = tail call i32 @get_log_level() #13
  %37 = icmp sgt i32 %36, 4
  br i1 %37, label %38, label %39

38:                                               ; preds = %35
  tail call void (i32, ptr, ...) @log_var(i32 noundef 5, ptr noundef nonnull @.str.153, i32 noundef %14) #13
  br label %39

39:                                               ; preds = %38, %35
  %40 = tail call i32 @get_log_level() #13
  %41 = icmp sgt i32 %40, 4
  br i1 %41, label %42, label %.thread

42:                                               ; preds = %39
  tail call void (i32, ptr, ...) @log_var(i32 noundef 5, ptr noundef nonnull @.str.154, ptr noundef nonnull @__func__._handle_get_ns_fd) #13
  br label %.thread

.thread:                                          ; preds = %.split31.us, %25, %39, %42
  %.017 = phi i32 [ 0, %42 ], [ 0, %39 ], [ -1, %25 ], [ -1, %.split31.us ]
  call void @llvm.lifetime.end.p0(i64 4, ptr nonnull %3) #13
  ret i32 %.017
}